; Function Attrs: nounwind sspstrong uwtable
define hidden i64 @rb_lcm(i64 noundef %0, i64 noundef %1) #0 {
  %3 = and i64 %1, 1
  %.not.i.i.i = icmp eq i64 %3, 0
  br i1 %.not.i.i.i, label %4, label %nurat_int_value.exit

4:                                                ; preds = %2
  %5 = icmp eq i64 %1, 0
  %6 = and i64 %1, 6
  %7 = icmp ne i64 %6, 0
  %8 = or i1 %5, %7
  br i1 %8, label %rb_integer_type_p.exit.thread5.i.i, label %rb_integer_type_p.exit.i.i

rb_integer_type_p.exit.i.i:                       ; preds = %4
  %9 = inttoptr i64 %1 to ptr
  %10 = load i64, ptr %9, align 8, !tbaa !7
  %11 = and i64 %10, 31
  %12 = icmp eq i64 %11, 10
  br i1 %12, label %k_integer_p.exit.i, label %rb_integer_type_p.exit.thread5.i.i

rb_integer_type_p.exit.thread5.i.i:               ; preds = %rb_integer_type_p.exit.i.i, %4
  %13 = load i64, ptr @rb_cNumeric, align 8, !tbaa !18
  %14 = tail call i64 @rb_obj_is_kind_of(i64 noundef %1, i64 noundef %13) #17
  %15 = and i64 %14, 4294967295
  %.not.i.i = icmp eq i64 %15, 0
  %brmerge.i.i = or i1 %8, %.not.i.i
  br i1 %brmerge.i.i, label %f_integer_p.exit.thread.i.i, label %f_integer_p.exit.i.i

f_integer_p.exit.i.i:                             ; preds = %rb_integer_type_p.exit.thread5.i.i
  %16 = inttoptr i64 %1 to ptr
  %17 = load i64, ptr %16, align 8, !tbaa !7
  %18 = and i64 %17, 31
  %.not9.i.i = icmp eq i64 %18, 10
  br i1 %.not9.i.i, label %k_integer_p.exit.i, label %f_integer_p.exit.thread.i.i

f_integer_p.exit.thread.i.i:                      ; preds = %f_integer_p.exit.i.i, %rb_integer_type_p.exit.thread5.i.i
  %19 = load i64, ptr @rb_eTypeError, align 8, !tbaa !18
  tail call void (i64, ptr, ...) @rb_raise(i64 noundef %19, ptr noundef nonnull @.str.45) #20
  unreachable

k_integer_p.exit.i:                               ; preds = %f_integer_p.exit.i.i, %rb_integer_type_p.exit.i.i
  %.pre-phi = phi ptr [ %16, %f_integer_p.exit.i.i ], [ %9, %rb_integer_type_p.exit.i.i ]
  %20 = load i64, ptr %.pre-phi, align 8, !tbaa !7
  %21 = and i64 %20, 31
  switch i64 %21, label %rbimpl_RB_TYPE_P_fastpath.exit.thread.i.i [
    i64 10, label %nurat_int_value.exit
    i64 5, label %22
  ]

22:                                               ; preds = %k_integer_p.exit.i
  %23 = tail call i64 @rb_str_to_inum(i64 noundef %1, i32 noundef 10, i32 noundef 0) #17
  br label %nurat_int_value.exit

rbimpl_RB_TYPE_P_fastpath.exit.thread.i.i:        ; preds = %k_integer_p.exit.i
  %24 = tail call i64 (i64, i64, i32, ...) @rb_funcall(i64 noundef %1, i64 noundef 3377, i32 noundef 0) #17
  br label %nurat_int_value.exit

nurat_int_value.exit:                             ; preds = %k_integer_p.exit.i, %2, %22, %rbimpl_RB_TYPE_P_fastpath.exit.thread.i.i
  %.0.i = phi i64 [ %1, %k_integer_p.exit.i ], [ %23, %22 ], [ %24, %rbimpl_RB_TYPE_P_fastpath.exit.thread.i.i ], [ %1, %2 ]
  %25 = tail call fastcc i64 @f_lcm(i64 noundef %0, i64 noundef %.0.i)
  ret i64 %25
}